; Function Attrs: mustprogress nounwind uwtable
define hidden void @_ZN8CallInfo24set_resolved_method_nameEP10JavaThread(ptr noundef nonnull align 8 dereferenceable(64) %0, ptr noundef %1) local_unnamed_addr #0 align 2 {
  %3 = getelementptr inbounds i8, ptr %0, i64 8
  %4 = tail call noundef ptr @_ZN35java_lang_invoke_ResolvedMethodName20find_resolved_methodERK12methodHandleP10JavaThread(ptr noundef nonnull align 8 dereferenceable(16) %3, ptr noundef %1) #10
  %5 = getelementptr inbounds i8, ptr %1, i64 8
  %6 = load ptr, ptr %5, align 8
  %.not = icmp eq ptr %6, null
  br i1 %.not, label %7, label %24

7:                                                ; preds = %2
  %8 = icmp eq ptr %4, null
  br i1 %8, label %_ZN6HandleC2EP6ThreadP7oopDesc.exit, label %9

9:                                                ; preds = %7
  %10 = getelementptr inbounds i8, ptr %1, i64 808
  %11 = load ptr, ptr %10, align 8
  %12 = getelementptr inbounds i8, ptr %11, i64 40
  %13 = load ptr, ptr %12, align 8
  %14 = getelementptr inbounds i8, ptr %11, i64 32
  %15 = load ptr, ptr %14, align 8
  %16 = ptrtoint ptr %13 to i64
  %17 = ptrtoint ptr %15 to i64
  %18 = sub i64 %16, %17
  %.not.i.i.i.i = icmp ult i64 %18, 8
  br i1 %.not.i.i.i.i, label %21, label %19

19:                                               ; preds = %9
  %20 = getelementptr inbounds i8, ptr %15, i64 8
  store ptr %20, ptr %14, align 8
  br label %_ZN10HandleArea15allocate_handleEP7oopDesc.exit.i

21:                                               ; preds = %9
  %22 = tail call noundef ptr @_ZN5Arena4growEmN17AllocFailStrategy13AllocFailEnumE(ptr noundef nonnull align 8 dereferenceable(48) %11, i64 noundef 8, i32 noundef 0) #10
  %.pre = ptrtoint ptr %22 to i64
  br label %_ZN10HandleArea15allocate_handleEP7oopDesc.exit.i

_ZN10HandleArea15allocate_handleEP7oopDesc.exit.i: ; preds = %21, %19
  %.pre-phi = phi i64 [ %.pre, %21 ], [ %17, %19 ]
  %.0.i.i.i.i = phi ptr [ %22, %21 ], [ %15, %19 ]
  store ptr %4, ptr %.0.i.i.i.i, align 8
  br label %_ZN6HandleC2EP6ThreadP7oopDesc.exit

_ZN6HandleC2EP6ThreadP7oopDesc.exit:              ; preds = %7, %_ZN10HandleArea15allocate_handleEP7oopDesc.exit.i
  %storemerge.i = phi i64 [ %.pre-phi, %_ZN10HandleArea15allocate_handleEP7oopDesc.exit.i ], [ 0, %7 ]
  %23 = getelementptr inbounds i8, ptr %0, i64 56
  store i64 %storemerge.i, ptr %23, align 8
  br label %24

24:                                               ; preds = %2, %_ZN6HandleC2EP6ThreadP7oopDesc.exit
  ret void
}